target datalayout = "e-m:e-p270:32:32-p271:32:32-p272:64:64-i64:64-i128:128-f80:128-n8:16:32:64-S128"
target triple = "x86_64-unknown-linux-gnu"

%struct.Object = type { ptr, ptr, ptr, i32, ptr }
%struct.ResettableState = type { i32, i8, i8 }
%struct.QTailQLink = type { ptr, ptr }
%struct.VirtioBusClass = type { %struct.BusClass, ptr, ptr, ptr, ptr, ptr, ptr, ptr, ptr, ptr, ptr, ptr, ptr, ptr, ptr, ptr, ptr, ptr, ptr, ptr, ptr, i8, ptr, ptr }
%struct.BusClass = type { %struct.ObjectClass, ptr, ptr, ptr, ptr, ptr, ptr, ptr, i32, i32 }
%struct.ObjectClass = type { ptr, ptr, [4 x ptr], [4 x ptr], ptr, ptr }
%struct.BusState = type { %struct.Object, ptr, ptr, ptr, i32, i8, i8, i32, %union.BusChildHead, %struct.BusStateEntry, %struct.ResettableState }
%union.BusChildHead = type { %struct.QTailQLink }
%struct.BusStateEntry = type { ptr, ptr }

@.str.96 = private unnamed_addr constant [7 x i8] c"device\00", align 1
@.str.97 = private unnamed_addr constant [101 x i8] c"/home/dtcxzyw/WorkSpace/Projects/compilers/llvm-opt-benchmark/bench/qemu/qemu/include/hw/qdev-core.h\00", align 1
@__func__.DEVICE = private unnamed_addr constant [7 x i8] c"DEVICE\00", align 1
@.str.98 = private unnamed_addr constant [11 x i8] c"virtio-bus\00", align 1
@.str.99 = private unnamed_addr constant [109 x i8] c"/home/dtcxzyw/WorkSpace/Projects/compilers/llvm-opt-benchmark/bench/qemu/qemu/include/hw/virtio/virtio-bus.h\00", align 1
@__func__.VIRTIO_BUS_GET_CLASS = private unnamed_addr constant [21 x i8] c"VIRTIO_BUS_GET_CLASS\00", align 1

; Function Attrs: nounwind sspstrong uwtable
define internal ptr @VIRTIO_BUS_GET_CLASS(ptr noundef %obj) #0 {
entry:
  %obj.addr = alloca ptr, align 8
  store ptr %obj, ptr %obj.addr, align 8
  %0 = load ptr, ptr %obj.addr, align 8
  %call = call ptr @object_get_class(ptr noundef %0)
  %call1 = call ptr @object_class_dynamic_cast_assert(ptr noundef %call, ptr noundef @.str.98, ptr noundef @.str.99, i32 noundef 36, ptr noundef @__func__.VIRTIO_BUS_GET_CLASS)
  ret ptr %call1
}

; Function Attrs: nounwind sspstrong uwtable
define internal ptr @DEVICE(ptr noundef %obj) #0 {
entry:
  %obj.addr = alloca ptr, align 8
  store ptr %obj, ptr %obj.addr, align 8
  %0 = load ptr, ptr %obj.addr, align 8
  %call = call ptr @object_dynamic_cast_assert(ptr noundef %0, ptr noundef @.str.96, ptr noundef @.str.97, i32 noundef 77, ptr noundef @__func__.DEVICE)
  ret ptr %call
}

; Function Attrs: nounwind sspstrong uwtable
define internal i32 @put_extra_state(ptr noundef %f, ptr noundef %pv, i64 noundef %size, ptr noundef %field, ptr noundef %vmdesc) #0 {
entry:
  %f.addr = alloca ptr, align 8
  %pv.addr = alloca ptr, align 8
  %size.addr = alloca i64, align 8
  %field.addr = alloca ptr, align 8
  %vmdesc.addr = alloca ptr, align 8
  %vdev = alloca ptr, align 8
  %qbus = alloca ptr, align 8
  %k = alloca ptr, align 8
  store ptr %f, ptr %f.addr, align 8
  store ptr %pv, ptr %pv.addr, align 8
  store i64 %size, ptr %size.addr, align 8
  store ptr %field, ptr %field.addr, align 8
  store ptr %vmdesc, ptr %vmdesc.addr, align 8
  %0 = load ptr, ptr %pv.addr, align 8
  store ptr %0, ptr %vdev, align 8
  %1 = load ptr, ptr %vdev, align 8
  %call = call ptr @DEVICE(ptr noundef %1)
  %call1 = call ptr @qdev_get_parent_bus(ptr noundef %call)
  store ptr %call1, ptr %qbus, align 8
  %2 = load ptr, ptr %qbus, align 8
  %call2 = call ptr @VIRTIO_BUS_GET_CLASS(ptr noundef %2)
  store ptr %call2, ptr %k, align 8
  %3 = load ptr, ptr %k, align 8
  %save_extra_state = getelementptr inbounds %struct.VirtioBusClass, ptr %3, i32 0, i32 4
  %4 = load ptr, ptr %save_extra_state, align 8
  %5 = load ptr, ptr %qbus, align 8
  %parent = getelementptr inbounds %struct.BusState, ptr %5, i32 0, i32 1
  %6 = load ptr, ptr %parent, align 8
  %7 = load ptr, ptr %f.addr, align 8
  call void %4(ptr noundef %6, ptr noundef %7)
  ret i32 0
}