; Function Attrs: nounwind sspstrong uwtable
define internal noundef i32 @put_extra_state(ptr noundef %f, ptr noundef %pv, i64 %size, ptr readnone captures(none) %field, ptr readnone captures(none) %vmdesc) #0 {
entry:
  %call.i = tail call ptr @object_dynamic_cast_assert(ptr noundef %pv, ptr noundef nonnull @.str.96, ptr noundef nonnull @.str.97, i32 noundef 77, ptr noundef nonnull @__func__.DEVICE) #23
  %call1 = tail call ptr @qdev_get_parent_bus(ptr noundef %call.i) #23
  %call.i2 = tail call ptr @object_get_class(ptr noundef %call1) #23
  %call1.i = tail call ptr @object_class_dynamic_cast_assert(ptr noundef %call.i2, ptr noundef nonnull @.str.98, ptr noundef nonnull @.str.99, i32 noundef 36, ptr noundef nonnull @__func__.VIRTIO_BUS_GET_CLASS) #23
  %save_extra_state = getelementptr inbounds nuw i8, ptr %call1.i, i64 184
  %0 = load ptr, ptr %save_extra_state, align 8
  %parent = getelementptr inbounds nuw i8, ptr %call1, i64 40
  %1 = load ptr, ptr %parent, align 8
  tail call void %0(ptr noundef %1, ptr noundef %f) #23
  ret i32 0
}